
_interrupt:

;GSM_LPJJ.c,99 :: 		void interrupt()
;GSM_LPJJ.c,102 :: 		if (RCIF_bit==1)//------------------------------------------------------------Est une demande d'interruption de réception sur UART
	BTFSS       RCIF_bit+0, BitPos(RCIF_bit+0) 
	GOTO        L_interrupt0
;GSM_LPJJ.c,104 :: 		tmp=UART_Rd_Ptr(); //------------------------------------------------------Lecture de la donnée en réception
	MOVF        _UART_Rd_Ptr+0, 0 
	MOVWF       R0 
	MOVF        _UART_Rd_Ptr+1, 0 
	MOVWF       R1 
	CALL        _____DoIFC+0, 0
	MOVF        R0, 0 
	MOVWF       interrupt_tmp_L0+0 
;GSM_LPJJ.c,105 :: 		if (ReponseID==GSM_UNREAD)
	MOVLW       0
	BTFSC       _ReponseID+0, 7 
	MOVLW       255
	XORLW       0
	BTFSS       STATUS+0, 2 
	GOTO        L__interrupt97
	MOVLW       3
	XORWF       _ReponseID+0, 0 
L__interrupt97:
	BTFSS       STATUS+0, 2 
	GOTO        L_interrupt1
;GSM_LPJJ.c,107 :: 		if (Arobas==1) //-------------------------------------------------------On reç déjà l'arobase marquant le début texte et on enregistre le texte
	MOVF        _Arobas+0, 0 
	XORLW       1
	BTFSS       STATUS+0, 2 
	GOTO        L_interrupt2
;GSM_LPJJ.c,109 :: 		sms_rcpt_message[SMS_pos]=tmp;
	MOVLW       _sms_rcpt_message+0
	MOVWF       FSR1 
	MOVLW       hi_addr(_sms_rcpt_message+0)
	MOVWF       FSR1H 
	MOVF        _SMS_pos+0, 0 
	ADDWF       FSR1, 1 
	BTFSC       STATUS+0, 0 
	INCF        FSR1H, 1 
	MOVF        interrupt_tmp_L0+0, 0 
	MOVWF       POSTINC1+0 
;GSM_LPJJ.c,110 :: 		SMS_pos++;
	INCF        _SMS_pos+0, 1 
;GSM_LPJJ.c,111 :: 		}
L_interrupt2:
;GSM_LPJJ.c,112 :: 		if (SMS_pos==50)  SMS_pos=49; //----------------------------------------On a atteint la longueur max du buffer de reception
	MOVF        _SMS_pos+0, 0 
	XORLW       50
	BTFSS       STATUS+0, 2 
	GOTO        L_interrupt3
	MOVLW       49
	MOVWF       _SMS_pos+0 
L_interrupt3:
;GSM_LPJJ.c,113 :: 		SMS_rcpt_message[SMS_pos]=0; //-----------------------------------------Ajout d'un fin de chaine
	MOVLW       _sms_rcpt_message+0
	MOVWF       FSR1 
	MOVLW       hi_addr(_sms_rcpt_message+0)
	MOVWF       FSR1H 
	MOVF        _SMS_pos+0, 0 
	ADDWF       FSR1, 1 
	BTFSC       STATUS+0, 0 
	INCF        FSR1H, 1 
	CLRF        POSTINC1+0 
;GSM_LPJJ.c,114 :: 		}
L_interrupt1:
;GSM_LPJJ.c,115 :: 		if (tmp=='@') //-----------------------------------------------------------Marqueur de début ou fin de texte
	MOVF        interrupt_tmp_L0+0, 0 
	XORLW       64
	BTFSS       STATUS+0, 2 
	GOTO        L_interrupt4
;GSM_LPJJ.c,117 :: 		if (Arobas==0) //-------------------------------------------------------Si premier arobase
	MOVF        _Arobas+0, 0 
	XORLW       0
	BTFSS       STATUS+0, 2 
	GOTO        L_interrupt5
;GSM_LPJJ.c,119 :: 		Arobas=1; //---------------------------------------------------------Alors : marquer que premier arobas reçu
	MOVLW       1
	MOVWF       _Arobas+0 
;GSM_LPJJ.c,120 :: 		SMS_pos=0; //--------------------------------------------------------positionner l'index du texte au début
	CLRF        _SMS_pos+0 
;GSM_LPJJ.c,121 :: 		SMS_rcpt_message[SMS_pos]=0; //--------------------------------------mettre le caractère fin de texte
	MOVLW       _sms_rcpt_message+0
	MOVWF       FSR1 
	MOVLW       hi_addr(_sms_rcpt_message+0)
	MOVWF       FSR1H 
	MOVF        _SMS_pos+0, 0 
	ADDWF       FSR1, 1 
	BTFSC       STATUS+0, 0 
	INCF        FSR1H, 1 
	CLRF        POSTINC1+0 
;GSM_LPJJ.c,122 :: 		}
	GOTO        L_interrupt6
L_interrupt5:
;GSM_LPJJ.c,125 :: 		SMS_pos--; //--------------------------------------------------------Alors : on l'enlève du buffer de réception
	DECF        _SMS_pos+0, 1 
;GSM_LPJJ.c,126 :: 		SMS_rcpt_message[SMS_pos]=0; //--------------------------------------et on le remplace par un fin de chaine
	MOVLW       _sms_rcpt_message+0
	MOVWF       FSR1 
	MOVLW       hi_addr(_sms_rcpt_message+0)
	MOVWF       FSR1H 
	MOVF        _SMS_pos+0, 0 
	ADDWF       FSR1, 1 
	BTFSC       STATUS+0, 0 
	INCF        FSR1H, 1 
	CLRF        POSTINC1+0 
;GSM_LPJJ.c,127 :: 		Arobas=0; //---------------------------------------------------------interdira d'enregistrer dans le buffer de reception
	CLRF        _Arobas+0 
;GSM_LPJJ.c,129 :: 		}
L_interrupt6:
;GSM_LPJJ.c,130 :: 		}
L_interrupt4:
;GSM_LPJJ.c,133 :: 		switch (Etat_gsm)
	GOTO        L_interrupt7
;GSM_LPJJ.c,135 :: 		case 0:
L_interrupt9:
;GSM_LPJJ.c,137 :: 		Reponse_GSM=-1;
	MOVLW       255
	MOVWF       _Reponse_gsm+0 
;GSM_LPJJ.c,138 :: 		if (tmp=='O') Etat_gsm=1; //-----------------------------------Suivant peut etre 'K'
	MOVF        interrupt_tmp_L0+0, 0 
	XORLW       79
	BTFSS       STATUS+0, 2 
	GOTO        L_interrupt10
	MOVLW       1
	MOVWF       _Etat_gsm+0 
L_interrupt10:
;GSM_LPJJ.c,139 :: 		if (tmp=='>') Etat_gsm=10; //----------------------------------Suivant peut etre " " suite a l'envoi d'une commande d'envoi de message
	MOVF        interrupt_tmp_L0+0, 0 
	XORLW       62
	BTFSS       STATUS+0, 2 
	GOTO        L_interrupt11
	MOVLW       10
	MOVWF       _Etat_gsm+0 
L_interrupt11:
;GSM_LPJJ.c,140 :: 		if (tmp=='U') Etat_gsm=120; //---------------------------------Suivant peut etre 'N' pour UNREAD
	MOVF        interrupt_tmp_L0+0, 0 
	XORLW       85
	BTFSS       STATUS+0, 2 
	GOTO        L_interrupt12
	MOVLW       120
	MOVWF       _Etat_gsm+0 
L_interrupt12:
;GSM_LPJJ.c,141 :: 		break;
	GOTO        L_interrupt8
;GSM_LPJJ.c,143 :: 		case 1:
L_interrupt13:
;GSM_LPJJ.c,145 :: 		if (tmp=='K') //-----------------------------------------------Si K reçu
	MOVF        interrupt_tmp_L0+0, 0 
	XORLW       75
	BTFSS       STATUS+0, 2 
	GOTO        L_interrupt14
;GSM_LPJJ.c,147 :: 		Reponse_GSM=GSM_OK; //--------------------------------------Alors : Reponse du module gsm  on a reçu OK
	CLRF        _Reponse_gsm+0 
;GSM_LPJJ.c,148 :: 		Etat_gsm=20; //---------------------------------------------suivant peut être Cr et puis Lf
	MOVLW       20
	MOVWF       _Etat_gsm+0 
;GSM_LPJJ.c,149 :: 		}
	GOTO        L_interrupt15
L_interrupt14:
;GSM_LPJJ.c,150 :: 		else Etat_GSM=0; //--------------------------------------------Sinon remise à zéro K pas arrivé
	CLRF        _Etat_gsm+0 
L_interrupt15:
;GSM_LPJJ.c,151 :: 		break;
	GOTO        L_interrupt8
;GSM_LPJJ.c,153 :: 		case 10:
L_interrupt16:
;GSM_LPJJ.c,155 :: 		if (tmp==' ')
	MOVF        interrupt_tmp_L0+0, 0 
	XORLW       32
	BTFSS       STATUS+0, 2 
	GOTO        L_interrupt17
;GSM_LPJJ.c,157 :: 		Signal_Reponse_gsm=1; //------------------------------------On a reçu "> " on va pouvoir ecrire le message au gsm
	MOVLW       1
	MOVWF       _Signal_Reponse_gsm+0 
;GSM_LPJJ.c,158 :: 		Reponse_GSM= GSM_PRET_A_RECEVOIR_MESSAGE;
	MOVLW       1
	MOVWF       _Reponse_gsm+0 
;GSM_LPJJ.c,159 :: 		ReponseID=Reponse_GSM; //-----------------------------------Sauvegarder réponse GSM pret a recevoir message avant traitement
	MOVLW       1
	MOVWF       _ReponseID+0 
;GSM_LPJJ.c,160 :: 		Etat_gsm=0; //----------------------------------------------Remise à zero etat gsm
	CLRF        _Etat_gsm+0 
;GSM_LPJJ.c,161 :: 		break;
	GOTO        L_interrupt8
;GSM_LPJJ.c,162 :: 		}
L_interrupt17:
;GSM_LPJJ.c,164 :: 		case 20:
L_interrupt18:
;GSM_LPJJ.c,166 :: 		if (tmp==13)  Etat_gsm=21; //----------------------------------Si Cr arrivé alors attente du Lf
	MOVF        interrupt_tmp_L0+0, 0 
	XORLW       13
	BTFSS       STATUS+0, 2 
	GOTO        L_interrupt19
	MOVLW       21
	MOVWF       _Etat_gsm+0 
	GOTO        L_interrupt20
L_interrupt19:
;GSM_LPJJ.c,167 :: 		else Etat_gsm=0; //--------------------------------------------Sinon pas un Cr qui arrive après OK donc remise à zero
	CLRF        _Etat_gsm+0 
L_interrupt20:
;GSM_LPJJ.c,168 :: 		break;
	GOTO        L_interrupt8
;GSM_LPJJ.c,170 :: 		case 21:
L_interrupt21:
;GSM_LPJJ.c,172 :: 		if (tmp==10) //------------------------------------------------Si Lf arrivé alors une réponse OK_Cr_Lf complète
	MOVF        interrupt_tmp_L0+0, 0 
	XORLW       10
	BTFSS       STATUS+0, 2 
	GOTO        L_interrupt22
;GSM_LPJJ.c,174 :: 		Signal_Reponse_gsm=1; //------------------------------------Alors : signaler réponse valide du gsm
	MOVLW       1
	MOVWF       _Signal_Reponse_gsm+0 
;GSM_LPJJ.c,175 :: 		if (ReponseID==GSM_UNREAD) //-------------------------------Si un message non lu
	MOVLW       0
	BTFSC       _ReponseID+0, 7 
	MOVLW       255
	XORLW       0
	BTFSS       STATUS+0, 2 
	GOTO        L__interrupt98
	MOVLW       3
	XORWF       _ReponseID+0, 0 
L__interrupt98:
	BTFSS       STATUS+0, 2 
	GOTO        L_interrupt23
;GSM_LPJJ.c,177 :: 		Message_complet=1; //------------------------------------Alors :signalé message complet dans le buffer de reception
	MOVLW       1
	MOVWF       _Message_complet+0 
;GSM_LPJJ.c,178 :: 		}
L_interrupt23:
;GSM_LPJJ.c,179 :: 		ReponseID=Reponse_GSM; //-----------------------------------Puis sauvegarder réponse OK avant traitement
	MOVF        _Reponse_gsm+0, 0 
	MOVWF       _ReponseID+0 
;GSM_LPJJ.c,180 :: 		}
L_interrupt22:
;GSM_LPJJ.c,181 :: 		Etat_gsm=0; //-------------------------------------------------Fin réception OK Cr Lf
	CLRF        _Etat_gsm+0 
;GSM_LPJJ.c,183 :: 		case 120:
L_interrupt24:
;GSM_LPJJ.c,185 :: 		if (tmp=='N')  Etat_gsm=121; //--------------------------------Si N de unread prochain devrait etre R
	MOVF        interrupt_tmp_L0+0, 0 
	XORLW       78
	BTFSS       STATUS+0, 2 
	GOTO        L_interrupt25
	MOVLW       121
	MOVWF       _Etat_gsm+0 
	GOTO        L_interrupt26
L_interrupt25:
;GSM_LPJJ.c,186 :: 		else Etat_gsm=0; //--------------------------------------------Sinon pas N qui arrive après U donc remise à zero
	CLRF        _Etat_gsm+0 
L_interrupt26:
;GSM_LPJJ.c,187 :: 		break;
	GOTO        L_interrupt8
;GSM_LPJJ.c,189 :: 		case 121:
L_interrupt27:
;GSM_LPJJ.c,191 :: 		if (tmp=='R')  Etat_gsm=122; //--------------------------------Si R de unread prochain devrait etre E
	MOVF        interrupt_tmp_L0+0, 0 
	XORLW       82
	BTFSS       STATUS+0, 2 
	GOTO        L_interrupt28
	MOVLW       122
	MOVWF       _Etat_gsm+0 
	GOTO        L_interrupt29
L_interrupt28:
;GSM_LPJJ.c,192 :: 		else Etat_gsm=0; //--------------------------------------------Sinon pas R qui arrive après  N donc remise à zero
	CLRF        _Etat_gsm+0 
L_interrupt29:
;GSM_LPJJ.c,193 :: 		break;
	GOTO        L_interrupt8
;GSM_LPJJ.c,195 :: 		case 122:
L_interrupt30:
;GSM_LPJJ.c,197 :: 		if (tmp=='E')  Etat_gsm=123; //--------------------------------Si E de unread prochain devrait etre A
	MOVF        interrupt_tmp_L0+0, 0 
	XORLW       69
	BTFSS       STATUS+0, 2 
	GOTO        L_interrupt31
	MOVLW       123
	MOVWF       _Etat_gsm+0 
	GOTO        L_interrupt32
L_interrupt31:
;GSM_LPJJ.c,198 :: 		else Etat_gsm=0; //--------------------------------------------Sinon pas E qui arrive après R donc remise à zero
	CLRF        _Etat_gsm+0 
L_interrupt32:
;GSM_LPJJ.c,199 :: 		break;
	GOTO        L_interrupt8
;GSM_LPJJ.c,201 :: 		case 123:
L_interrupt33:
;GSM_LPJJ.c,203 :: 		if (tmp=='A')  Etat_gsm=124; //--------------------------------Si A de unread prochain devrait etre D
	MOVF        interrupt_tmp_L0+0, 0 
	XORLW       65
	BTFSS       STATUS+0, 2 
	GOTO        L_interrupt34
	MOVLW       124
	MOVWF       _Etat_gsm+0 
	GOTO        L_interrupt35
L_interrupt34:
;GSM_LPJJ.c,204 :: 		else Etat_gsm=0; //--------------------------------------------Sinon pas A qui arrive après E donc remise à zero
	CLRF        _Etat_gsm+0 
L_interrupt35:
;GSM_LPJJ.c,205 :: 		break;
	GOTO        L_interrupt8
;GSM_LPJJ.c,207 :: 		case 124:
L_interrupt36:
;GSM_LPJJ.c,209 :: 		if (tmp=='D') //-----------------------------------------------Un message unread de trouvé
	MOVF        interrupt_tmp_L0+0, 0 
	XORLW       68
	BTFSS       STATUS+0, 2 
	GOTO        L_interrupt37
;GSM_LPJJ.c,211 :: 		Signal_Reponse_gsm=1; //------------------------------------Signaler réponse valide du gsm
	MOVLW       1
	MOVWF       _Signal_Reponse_gsm+0 
;GSM_LPJJ.c,212 :: 		Reponse_GSM=GSM_UNREAD; //----------------------------------Signaler message non lu trouvé
	MOVLW       3
	MOVWF       _Reponse_gsm+0 
;GSM_LPJJ.c,213 :: 		ReponseID=Reponse_GSM; //-----------------------------------Sauvegarder réponse avant traitement
	MOVLW       3
	MOVWF       _ReponseID+0 
;GSM_LPJJ.c,214 :: 		SMS_pos=0; //-----------------------------------------------Buffer reception initialisé au début
	CLRF        _SMS_pos+0 
;GSM_LPJJ.c,215 :: 		SMS_rcpt_message[0]=0; //-----------------------------------....
	CLRF        _sms_rcpt_message+0 
;GSM_LPJJ.c,216 :: 		Message_complet=0; //---------------------------------------Signalé message incomplet
	CLRF        _Message_complet+0 
;GSM_LPJJ.c,217 :: 		Arobas=0; //------------------------------------------------Init attente début message signalé par une @
	CLRF        _Arobas+0 
;GSM_LPJJ.c,218 :: 		}
L_interrupt37:
;GSM_LPJJ.c,219 :: 		Etat_gsm=0; //-------------------------------------------------Remise à zero etat gsm
	CLRF        _Etat_gsm+0 
;GSM_LPJJ.c,220 :: 		break;
	GOTO        L_interrupt8
;GSM_LPJJ.c,222 :: 		default:
L_interrupt38:
;GSM_LPJJ.c,224 :: 		Etat_gsm=0;
	CLRF        _Etat_gsm+0 
;GSM_LPJJ.c,226 :: 		}
	GOTO        L_interrupt8
L_interrupt7:
	MOVF        _Etat_gsm+0, 0 
	XORLW       0
	BTFSC       STATUS+0, 2 
	GOTO        L_interrupt9
	MOVF        _Etat_gsm+0, 0 
	XORLW       1
	BTFSC       STATUS+0, 2 
	GOTO        L_interrupt13
	MOVF        _Etat_gsm+0, 0 
	XORLW       10
	BTFSC       STATUS+0, 2 
	GOTO        L_interrupt16
	MOVF        _Etat_gsm+0, 0 
	XORLW       20
	BTFSC       STATUS+0, 2 
	GOTO        L_interrupt18
	MOVF        _Etat_gsm+0, 0 
	XORLW       21
	BTFSC       STATUS+0, 2 
	GOTO        L_interrupt21
	MOVF        _Etat_gsm+0, 0 
	XORLW       120
	BTFSC       STATUS+0, 2 
	GOTO        L_interrupt24
	MOVF        _Etat_gsm+0, 0 
	XORLW       121
	BTFSC       STATUS+0, 2 
	GOTO        L_interrupt27
	MOVF        _Etat_gsm+0, 0 
	XORLW       122
	BTFSC       STATUS+0, 2 
	GOTO        L_interrupt30
	MOVF        _Etat_gsm+0, 0 
	XORLW       123
	BTFSC       STATUS+0, 2 
	GOTO        L_interrupt33
	MOVF        _Etat_gsm+0, 0 
	XORLW       124
	BTFSC       STATUS+0, 2 
	GOTO        L_interrupt36
	GOTO        L_interrupt38
L_interrupt8:
;GSM_LPJJ.c,229 :: 		switch (Etat_gsm_nb)
	GOTO        L_interrupt39
;GSM_LPJJ.c,231 :: 		case 0:
L_interrupt41:
;GSM_LPJJ.c,233 :: 		if (tmp=='"') //-----------------------------------------------Si " peut signaler un numéro entrant
	MOVF        interrupt_tmp_L0+0, 0 
	XORLW       34
	BTFSS       STATUS+0, 2 
	GOTO        L_interrupt42
;GSM_LPJJ.c,235 :: 		Etat_gsm_nb=1; //-------------------------------------------Alors : caractere suivant sera peut etre un +
	MOVLW       1
	MOVWF       _Etat_gsm_nb+0 
;GSM_LPJJ.c,236 :: 		Phone_nb_pos=0;
	CLRF        _Phone_nb_pos+0 
;GSM_LPJJ.c,237 :: 		}
L_interrupt42:
;GSM_LPJJ.c,238 :: 		break;
	GOTO        L_interrupt40
;GSM_LPJJ.c,240 :: 		case 1:
L_interrupt43:
;GSM_LPJJ.c,242 :: 		if (tmp=='+') //-----------------------------------------------Si "+" on a un numéro de téléphone
	MOVF        interrupt_tmp_L0+0, 0 
	XORLW       43
	BTFSS       STATUS+0, 2 
	GOTO        L_interrupt44
;GSM_LPJJ.c,244 :: 		phone_nb_entrant[Phone_nb_pos]=tmp; //----------------------Alors : mémorise le +
	MOVLW       _phone_nb_entrant+0
	MOVWF       FSR1 
	MOVLW       hi_addr(_phone_nb_entrant+0)
	MOVWF       FSR1H 
	MOVF        _Phone_nb_pos+0, 0 
	ADDWF       FSR1, 1 
	BTFSC       STATUS+0, 0 
	INCF        FSR1H, 1 
	MOVF        interrupt_tmp_L0+0, 0 
	MOVWF       POSTINC1+0 
;GSM_LPJJ.c,245 :: 		Phone_nb_pos++; //------------------------------------------positionné sur le caractére suivant
	INCF        _Phone_nb_pos+0, 1 
;GSM_LPJJ.c,246 :: 		phone_nb_entrant[Phone_nb_pos]=0; //------------------------mettre un fin de chaine
	MOVLW       _phone_nb_entrant+0
	MOVWF       FSR1 
	MOVLW       hi_addr(_phone_nb_entrant+0)
	MOVWF       FSR1H 
	MOVF        _Phone_nb_pos+0, 0 
	ADDWF       FSR1, 1 
	BTFSC       STATUS+0, 0 
	INCF        FSR1H, 1 
	CLRF        POSTINC1+0 
;GSM_LPJJ.c,247 :: 		Etat_gsm_nb=2;
	MOVLW       2
	MOVWF       _Etat_gsm_nb+0 
;GSM_LPJJ.c,248 :: 		}
	GOTO        L_interrupt45
L_interrupt44:
;GSM_LPJJ.c,251 :: 		Etat_gsm_nb=0;
	CLRF        _Etat_gsm_nb+0 
;GSM_LPJJ.c,252 :: 		Phone_nb_pos=0;
	CLRF        _Phone_nb_pos+0 
;GSM_LPJJ.c,253 :: 		}
L_interrupt45:
;GSM_LPJJ.c,254 :: 		break;
	GOTO        L_interrupt40
;GSM_LPJJ.c,256 :: 		case 2:
L_interrupt46:
;GSM_LPJJ.c,258 :: 		if (tmp>='0' && tmp<='9') //-----------------------------------Si les caractères suivants sont des chiffres
	MOVLW       48
	SUBWF       interrupt_tmp_L0+0, 0 
	BTFSS       STATUS+0, 0 
	GOTO        L_interrupt49
	MOVF        interrupt_tmp_L0+0, 0 
	SUBLW       57
	BTFSS       STATUS+0, 0 
	GOTO        L_interrupt49
L__interrupt92:
;GSM_LPJJ.c,260 :: 		phone_nb_entrant[Phone_nb_pos]=tmp; //----------------------Alors : enregistrer les chiffres du numéro
	MOVLW       _phone_nb_entrant+0
	MOVWF       FSR1 
	MOVLW       hi_addr(_phone_nb_entrant+0)
	MOVWF       FSR1H 
	MOVF        _Phone_nb_pos+0, 0 
	ADDWF       FSR1, 1 
	BTFSC       STATUS+0, 0 
	INCF        FSR1H, 1 
	MOVF        interrupt_tmp_L0+0, 0 
	MOVWF       POSTINC1+0 
;GSM_LPJJ.c,261 :: 		Phone_nb_pos++;
	INCF        _Phone_nb_pos+0, 1 
;GSM_LPJJ.c,262 :: 		phone_nb_entrant[Phone_nb_pos]=0; //------------------------mettre un fin de chaine
	MOVLW       _phone_nb_entrant+0
	MOVWF       FSR1 
	MOVLW       hi_addr(_phone_nb_entrant+0)
	MOVWF       FSR1H 
	MOVF        _Phone_nb_pos+0, 0 
	ADDWF       FSR1, 1 
	BTFSC       STATUS+0, 0 
	INCF        FSR1H, 1 
	CLRF        POSTINC1+0 
;GSM_LPJJ.c,263 :: 		}
	GOTO        L_interrupt50
L_interrupt49:
;GSM_LPJJ.c,264 :: 		else if (tmp=='"')//-------------------------------------------Sinon Si " alors fin du numéro
	MOVF        interrupt_tmp_L0+0, 0 
	XORLW       34
	BTFSS       STATUS+0, 2 
	GOTO        L_interrupt51
;GSM_LPJJ.c,266 :: 		Phone_nb_pos=0;
	CLRF        _Phone_nb_pos+0 
;GSM_LPJJ.c,267 :: 		Etat_gsm_nb=0;
	CLRF        _Etat_gsm_nb+0 
;GSM_LPJJ.c,268 :: 		}
	GOTO        L_interrupt52
L_interrupt51:
;GSM_LPJJ.c,271 :: 		phone_nb_entrant[0]=0;
	CLRF        _phone_nb_entrant+0 
;GSM_LPJJ.c,272 :: 		Phone_nb_pos=0;
	CLRF        _Phone_nb_pos+0 
;GSM_LPJJ.c,273 :: 		Etat_gsm_nb=0;
	CLRF        _Etat_gsm_nb+0 
;GSM_LPJJ.c,274 :: 		}
L_interrupt52:
L_interrupt50:
;GSM_LPJJ.c,275 :: 		break;
	GOTO        L_interrupt40
;GSM_LPJJ.c,277 :: 		default: //---------------------------------------------------------Défaut caractère non prévu arrivé alors reinitialiser
L_interrupt53:
;GSM_LPJJ.c,279 :: 		phone_nb_entrant[0]=0;
	CLRF        _phone_nb_entrant+0 
;GSM_LPJJ.c,280 :: 		Phone_nb_pos=0;
	CLRF        _Phone_nb_pos+0 
;GSM_LPJJ.c,281 :: 		Etat_gsm_nb=0;
	CLRF        _Etat_gsm_nb+0 
;GSM_LPJJ.c,283 :: 		}
	GOTO        L_interrupt40
L_interrupt39:
	MOVF        _Etat_gsm_nb+0, 0 
	XORLW       0
	BTFSC       STATUS+0, 2 
	GOTO        L_interrupt41
	MOVF        _Etat_gsm_nb+0, 0 
	XORLW       1
	BTFSC       STATUS+0, 2 
	GOTO        L_interrupt43
	MOVF        _Etat_gsm_nb+0, 0 
	XORLW       2
	BTFSC       STATUS+0, 2 
	GOTO        L_interrupt46
	GOTO        L_interrupt53
L_interrupt40:
;GSM_LPJJ.c,284 :: 		}
L_interrupt0:
;GSM_LPJJ.c,285 :: 		}
L_end_interrupt:
L__interrupt96:
	RETFIE      1
; end of _interrupt

_GSM_EnvoiCmd_AT:

;GSM_LPJJ.c,290 :: 		void GSM_EnvoiCmd_AT (char *s)
;GSM_LPJJ.c,292 :: 		while (*s)
L_GSM_EnvoiCmd_AT54:
	MOVFF       FARG_GSM_EnvoiCmd_AT_s+0, FSR0
	MOVFF       FARG_GSM_EnvoiCmd_AT_s+1, FSR0H
	MOVF        POSTINC0+0, 1 
	BTFSC       STATUS+0, 2 
	GOTO        L_GSM_EnvoiCmd_AT55
;GSM_LPJJ.c,294 :: 		UART_Wr_Ptr (*s++); //--------------------------------------------------Envoi la chaine sur uart1
	MOVF        _UART_Wr_Ptr+2, 0 
	MOVWF       FSR1 
	MOVF        _UART_Wr_Ptr+3, 0 
	MOVWF       FSR1H 
	MOVFF       FARG_GSM_EnvoiCmd_AT_s+0, FSR0
	MOVFF       FARG_GSM_EnvoiCmd_AT_s+1, FSR0H
	MOVF        POSTINC0+0, 0 
	MOVWF       POSTINC1+0 
	MOVF        _UART_Wr_Ptr+0, 0 
	MOVWF       R0 
	MOVF        _UART_Wr_Ptr+1, 0 
	MOVWF       R1 
	CALL        _____DoIFC+0, 0
	INFSNZ      FARG_GSM_EnvoiCmd_AT_s+0, 1 
	INCF        FARG_GSM_EnvoiCmd_AT_s+1, 1 
;GSM_LPJJ.c,295 :: 		}
	GOTO        L_GSM_EnvoiCmd_AT54
L_GSM_EnvoiCmd_AT55:
;GSM_LPJJ.c,296 :: 		UART_Wr_Ptr(0x0D); //---------------------------------------------------Envoi terminé par un Cr
	MOVF        _UART_Wr_Ptr+2, 0 
	MOVWF       FSR1 
	MOVF        _UART_Wr_Ptr+3, 0 
	MOVWF       FSR1H 
	MOVLW       13
	MOVWF       POSTINC1+0 
	MOVF        _UART_Wr_Ptr+0, 0 
	MOVWF       R0 
	MOVF        _UART_Wr_Ptr+1, 0 
	MOVWF       R1 
	CALL        _____DoIFC+0, 0
;GSM_LPJJ.c,297 :: 		}
L_end_GSM_EnvoiCmd_AT:
	RETURN      0
; end of _GSM_EnvoiCmd_AT

_GSM_Reponse:

;GSM_LPJJ.c,300 :: 		short GSM_Reponse()
;GSM_LPJJ.c,302 :: 		if (Signal_Reponse_gsm)
	MOVF        _Signal_Reponse_gsm+0, 1 
	BTFSC       STATUS+0, 2 
	GOTO        L_GSM_Reponse56
;GSM_LPJJ.c,304 :: 		Signal_Reponse_gsm=0;
	CLRF        _Signal_Reponse_gsm+0 
;GSM_LPJJ.c,305 :: 		return ReponseID;
	MOVF        _ReponseID+0, 0 
	MOVWF       R0 
	GOTO        L_end_GSM_Reponse
;GSM_LPJJ.c,306 :: 		}
L_GSM_Reponse56:
;GSM_LPJJ.c,307 :: 		else return -1;
	MOVLW       255
	MOVWF       R0 
;GSM_LPJJ.c,308 :: 		}
L_end_GSM_Reponse:
	RETURN      0
; end of _GSM_Reponse

_GSM_Attente_reponse:

;GSM_LPJJ.c,311 :: 		void GSM_Attente_reponse (char type_reponse)
;GSM_LPJJ.c,313 :: 		char attente=1;
	MOVLW       1
	MOVWF       GSM_Attente_reponse_attente_L0+0 
;GSM_LPJJ.c,315 :: 		while (attente)
L_GSM_Attente_reponse58:
	MOVF        GSM_Attente_reponse_attente_L0+0, 1 
	BTFSC       STATUS+0, 2 
	GOTO        L_GSM_Attente_reponse59
;GSM_LPJJ.c,317 :: 		reponseGSM=GSM_Reponse();
	CALL        _GSM_Reponse+0, 0
	MOVF        R0, 0 
	MOVWF       GSM_Attente_reponse_reponseGSM_L0+0 
;GSM_LPJJ.c,318 :: 		if ((reponseGSM==type_reponse) || (reponseGSM==GSM_ERROR)) attente=0; //---Attente de la reponse approprié ou reponse erreur
	MOVF        R0, 0 
	XORWF       FARG_GSM_Attente_reponse_type_reponse+0, 0 
	BTFSC       STATUS+0, 2 
	GOTO        L__GSM_Attente_reponse93
	MOVLW       0
	XORLW       0
	BTFSS       STATUS+0, 2 
	GOTO        L__GSM_Attente_reponse102
	MOVLW       2
	XORWF       GSM_Attente_reponse_reponseGSM_L0+0, 0 
L__GSM_Attente_reponse102:
	BTFSC       STATUS+0, 2 
	GOTO        L__GSM_Attente_reponse93
	GOTO        L_GSM_Attente_reponse62
L__GSM_Attente_reponse93:
	CLRF        GSM_Attente_reponse_attente_L0+0 
L_GSM_Attente_reponse62:
;GSM_LPJJ.c,319 :: 		}
	GOTO        L_GSM_Attente_reponse58
L_GSM_Attente_reponse59:
;GSM_LPJJ.c,320 :: 		}
L_end_GSM_Attente_reponse:
	RETURN      0
; end of _GSM_Attente_reponse

_Afficher:

;GSM_LPJJ.c,323 :: 		void Afficher()
;GSM_LPJJ.c,325 :: 		Lcd_Cmd(_LCD_CLEAR);
	MOVLW       1
	MOVWF       FARG_Lcd_Cmd_out_char+0 
	CALL        _Lcd_Cmd+0, 0
;GSM_LPJJ.c,326 :: 		Lcd_Out(1,1,txtL1_lcd); //----------------------------------------------------Afficher sur ligne 1 le contenu buffer ligne1
	MOVLW       1
	MOVWF       FARG_Lcd_Out_row+0 
	MOVLW       1
	MOVWF       FARG_Lcd_Out_column+0 
	MOVLW       _txtL1_lcd+0
	MOVWF       FARG_Lcd_Out_text+0 
	MOVLW       hi_addr(_txtL1_lcd+0)
	MOVWF       FARG_Lcd_Out_text+1 
	CALL        _Lcd_Out+0, 0
;GSM_LPJJ.c,327 :: 		Lcd_Out(2,1,txtL2_lcd); //----------------------------------------------------Afficher sur ligne 2 le contenu buffer ligne2
	MOVLW       2
	MOVWF       FARG_Lcd_Out_row+0 
	MOVLW       1
	MOVWF       FARG_Lcd_Out_column+0 
	MOVLW       _txtL2_lcd+0
	MOVWF       FARG_Lcd_Out_text+0 
	MOVLW       hi_addr(_txtL2_lcd+0)
	MOVWF       FARG_Lcd_Out_text+1 
	CALL        _Lcd_Out+0, 0
;GSM_LPJJ.c,328 :: 		}
L_end_Afficher:
	RETURN      0
; end of _Afficher

_Envoi_Message:

;GSM_LPJJ.c,331 :: 		void Envoi_Message(char Message_Nb)
;GSM_LPJJ.c,335 :: 		strcpy(txtL1_lcd, "routine message");
	MOVLW       _txtL1_lcd+0
	MOVWF       FARG_strcpy_to+0 
	MOVLW       hi_addr(_txtL1_lcd+0)
	MOVWF       FARG_strcpy_to+1 
	MOVLW       ?lstr1_GSM_LPJJ+0
	MOVWF       FARG_strcpy_from+0 
	MOVLW       hi_addr(?lstr1_GSM_LPJJ+0)
	MOVWF       FARG_strcpy_from+1 
	CALL        _strcpy+0, 0
;GSM_LPJJ.c,336 :: 		strcpy(txtL2_lcd, "*");
	MOVLW       _txtL2_lcd+0
	MOVWF       FARG_strcpy_to+0 
	MOVLW       hi_addr(_txtL2_lcd+0)
	MOVWF       FARG_strcpy_to+1 
	MOVLW       ?lstr2_GSM_LPJJ+0
	MOVWF       FARG_strcpy_from+0 
	MOVLW       hi_addr(?lstr2_GSM_LPJJ+0)
	MOVWF       FARG_strcpy_from+1 
	CALL        _strcpy+0, 0
;GSM_LPJJ.c,337 :: 		Afficher();
	CALL        _Afficher+0, 0
;GSM_LPJJ.c,339 :: 		strcpy (AT_cmd,AT_ENVOI_MESSAGE); //------------------------------------------Préparation de la commande d'envoi de sms
	MOVLW       _AT_cmd+0
	MOVWF       FARG_strcpy_to+0 
	MOVLW       hi_addr(_AT_cmd+0)
	MOVWF       FARG_strcpy_to+1 
	MOVLW       ?lstr3_GSM_LPJJ+0
	MOVWF       FARG_strcpy_from+0 
	MOVLW       hi_addr(?lstr3_GSM_LPJJ+0)
	MOVWF       FARG_strcpy_from+1 
	CALL        _strcpy+0, 0
;GSM_LPJJ.c,340 :: 		strcat (AT_cmd,phone_nb_sortant); //------------------------------------------Ajout du numéro de téléphone
	MOVLW       _AT_cmd+0
	MOVWF       FARG_strcat_to+0 
	MOVLW       hi_addr(_AT_cmd+0)
	MOVWF       FARG_strcat_to+1 
	MOVLW       _phone_nb_sortant+0
	MOVWF       FARG_strcat_from+0 
	MOVLW       hi_addr(_phone_nb_sortant+0)
	MOVWF       FARG_strcat_from+1 
	CALL        _strcat+0, 0
;GSM_LPJJ.c,341 :: 		strcat (AT_cmd,"\""); //------------------------------------------------------Terminé par "
	MOVLW       _AT_cmd+0
	MOVWF       FARG_strcat_to+0 
	MOVLW       hi_addr(_AT_cmd+0)
	MOVWF       FARG_strcat_to+1 
	MOVLW       ?lstr4_GSM_LPJJ+0
	MOVWF       FARG_strcat_from+0 
	MOVLW       hi_addr(?lstr4_GSM_LPJJ+0)
	MOVWF       FARG_strcat_from+1 
	CALL        _strcat+0, 0
;GSM_LPJJ.c,342 :: 		GSM_EnvoiCmd_AT (AT_cmd); //--------------------------------------------------Envoi de la commande + numéro
	MOVLW       _AT_cmd+0
	MOVWF       FARG_GSM_EnvoiCmd_AT_s+0 
	MOVLW       hi_addr(_AT_cmd+0)
	MOVWF       FARG_GSM_EnvoiCmd_AT_s+1 
	CALL        _GSM_EnvoiCmd_AT+0, 0
;GSM_LPJJ.c,343 :: 		GSM_Attente_reponse(GSM_PRET_A_RECEVOIR_MESSAGE);
	MOVLW       1
	MOVWF       FARG_GSM_Attente_reponse_type_reponse+0 
	CALL        _GSM_Attente_reponse+0, 0
;GSM_LPJJ.c,346 :: 		switch (Message_Nb)
	GOTO        L_Envoi_Message63
;GSM_LPJJ.c,348 :: 		case 1:
L_Envoi_Message65:
;GSM_LPJJ.c,349 :: 		strcpy(Type_Message,"Chute");
	MOVLW       Envoi_Message_Type_Message_L0+0
	MOVWF       FARG_strcpy_to+0 
	MOVLW       hi_addr(Envoi_Message_Type_Message_L0+0)
	MOVWF       FARG_strcpy_to+1 
	MOVLW       ?lstr5_GSM_LPJJ+0
	MOVWF       FARG_strcpy_from+0 
	MOVLW       hi_addr(?lstr5_GSM_LPJJ+0)
	MOVWF       FARG_strcpy_from+1 
	CALL        _strcpy+0, 0
;GSM_LPJJ.c,350 :: 		break;
	GOTO        L_Envoi_Message64
;GSM_LPJJ.c,351 :: 		case 2:
L_Envoi_Message66:
;GSM_LPJJ.c,352 :: 		strcpy(Type_Message,"Medoc non pris");
	MOVLW       Envoi_Message_Type_Message_L0+0
	MOVWF       FARG_strcpy_to+0 
	MOVLW       hi_addr(Envoi_Message_Type_Message_L0+0)
	MOVWF       FARG_strcpy_to+1 
	MOVLW       ?lstr6_GSM_LPJJ+0
	MOVWF       FARG_strcpy_from+0 
	MOVLW       hi_addr(?lstr6_GSM_LPJJ+0)
	MOVWF       FARG_strcpy_from+1 
	CALL        _strcpy+0, 0
;GSM_LPJJ.c,353 :: 		break;
	GOTO        L_Envoi_Message64
;GSM_LPJJ.c,354 :: 		case 3:
L_Envoi_Message67:
;GSM_LPJJ.c,355 :: 		strcpy(Type_Message,"Pb cardiaque");
	MOVLW       Envoi_Message_Type_Message_L0+0
	MOVWF       FARG_strcpy_to+0 
	MOVLW       hi_addr(Envoi_Message_Type_Message_L0+0)
	MOVWF       FARG_strcpy_to+1 
	MOVLW       ?lstr7_GSM_LPJJ+0
	MOVWF       FARG_strcpy_from+0 
	MOVLW       hi_addr(?lstr7_GSM_LPJJ+0)
	MOVWF       FARG_strcpy_from+1 
	CALL        _strcpy+0, 0
;GSM_LPJJ.c,356 :: 		break;
	GOTO        L_Envoi_Message64
;GSM_LPJJ.c,357 :: 		case 4:
L_Envoi_Message68:
;GSM_LPJJ.c,358 :: 		strcpy(Type_Message,"Pillulier vide");
	MOVLW       Envoi_Message_Type_Message_L0+0
	MOVWF       FARG_strcpy_to+0 
	MOVLW       hi_addr(Envoi_Message_Type_Message_L0+0)
	MOVWF       FARG_strcpy_to+1 
	MOVLW       ?lstr8_GSM_LPJJ+0
	MOVWF       FARG_strcpy_from+0 
	MOVLW       hi_addr(?lstr8_GSM_LPJJ+0)
	MOVWF       FARG_strcpy_from+1 
	CALL        _strcpy+0, 0
;GSM_LPJJ.c,359 :: 		break;
	GOTO        L_Envoi_Message64
;GSM_LPJJ.c,360 :: 		default:
L_Envoi_Message69:
;GSM_LPJJ.c,361 :: 		strcpy(Type_Message,"Anomalie systeme");
	MOVLW       Envoi_Message_Type_Message_L0+0
	MOVWF       FARG_strcpy_to+0 
	MOVLW       hi_addr(Envoi_Message_Type_Message_L0+0)
	MOVWF       FARG_strcpy_to+1 
	MOVLW       ?lstr9_GSM_LPJJ+0
	MOVWF       FARG_strcpy_from+0 
	MOVLW       hi_addr(?lstr9_GSM_LPJJ+0)
	MOVWF       FARG_strcpy_from+1 
	CALL        _strcpy+0, 0
;GSM_LPJJ.c,362 :: 		break;
	GOTO        L_Envoi_Message64
;GSM_LPJJ.c,363 :: 		}
L_Envoi_Message63:
	MOVF        FARG_Envoi_Message_Message_Nb+0, 0 
	XORLW       1
	BTFSC       STATUS+0, 2 
	GOTO        L_Envoi_Message65
	MOVF        FARG_Envoi_Message_Message_Nb+0, 0 
	XORLW       2
	BTFSC       STATUS+0, 2 
	GOTO        L_Envoi_Message66
	MOVF        FARG_Envoi_Message_Message_Nb+0, 0 
	XORLW       3
	BTFSC       STATUS+0, 2 
	GOTO        L_Envoi_Message67
	MOVF        FARG_Envoi_Message_Message_Nb+0, 0 
	XORLW       4
	BTFSC       STATUS+0, 2 
	GOTO        L_Envoi_Message68
	GOTO        L_Envoi_Message69
L_Envoi_Message64:
;GSM_LPJJ.c,365 :: 		GSM_EnvoiCmd_AT (Type_Message); //--------------------------------------------Envoi du message
	MOVLW       Envoi_Message_Type_Message_L0+0
	MOVWF       FARG_GSM_EnvoiCmd_AT_s+0 
	MOVLW       hi_addr(Envoi_Message_Type_Message_L0+0)
	MOVWF       FARG_GSM_EnvoiCmd_AT_s+1 
	CALL        _GSM_EnvoiCmd_AT+0, 0
;GSM_LPJJ.c,366 :: 		UART_Wr_Ptr (0x1A); //--------------------------------------------------------Envoi d'un CTRL Z comme fin de caractère (en ascii SUB )
	MOVF        _UART_Wr_Ptr+2, 0 
	MOVWF       FSR1 
	MOVF        _UART_Wr_Ptr+3, 0 
	MOVWF       FSR1H 
	MOVLW       26
	MOVWF       POSTINC1+0 
	MOVF        _UART_Wr_Ptr+0, 0 
	MOVWF       R0 
	MOVF        _UART_Wr_Ptr+1, 0 
	MOVWF       R1 
	CALL        _____DoIFC+0, 0
;GSM_LPJJ.c,367 :: 		UART_Wr_Ptr (0x0D); //--------------------------------------------------------Envoi d'un Cr pour fin decommande
	MOVF        _UART_Wr_Ptr+2, 0 
	MOVWF       FSR1 
	MOVF        _UART_Wr_Ptr+3, 0 
	MOVWF       FSR1H 
	MOVLW       13
	MOVWF       POSTINC1+0 
	MOVF        _UART_Wr_Ptr+0, 0 
	MOVWF       R0 
	MOVF        _UART_Wr_Ptr+1, 0 
	MOVWF       R1 
	CALL        _____DoIFC+0, 0
;GSM_LPJJ.c,368 :: 		GSM_Attente_reponse(GSM_OK); //-----------------------------------------------Attente d'un "OKCrLf"
	CLRF        FARG_GSM_Attente_reponse_type_reponse+0 
	CALL        _GSM_Attente_reponse+0, 0
;GSM_LPJJ.c,369 :: 		Envoi_En_Cours=0; //----------------------------------------------------------Effacer envoi en cours
	CLRF        _Envoi_En_Cours+0 
;GSM_LPJJ.c,371 :: 		strcpy(txtL1_lcd, "message envoye:");
	MOVLW       _txtL1_lcd+0
	MOVWF       FARG_strcpy_to+0 
	MOVLW       hi_addr(_txtL1_lcd+0)
	MOVWF       FARG_strcpy_to+1 
	MOVLW       ?lstr10_GSM_LPJJ+0
	MOVWF       FARG_strcpy_from+0 
	MOVLW       hi_addr(?lstr10_GSM_LPJJ+0)
	MOVWF       FARG_strcpy_from+1 
	CALL        _strcpy+0, 0
;GSM_LPJJ.c,372 :: 		strcpy(txtL2_lcd, Type_Message);
	MOVLW       _txtL2_lcd+0
	MOVWF       FARG_strcpy_to+0 
	MOVLW       hi_addr(_txtL2_lcd+0)
	MOVWF       FARG_strcpy_to+1 
	MOVLW       Envoi_Message_Type_Message_L0+0
	MOVWF       FARG_strcpy_from+0 
	MOVLW       hi_addr(Envoi_Message_Type_Message_L0+0)
	MOVWF       FARG_strcpy_from+1 
	CALL        _strcpy+0, 0
;GSM_LPJJ.c,373 :: 		Afficher();
	CALL        _Afficher+0, 0
;GSM_LPJJ.c,374 :: 		}
L_end_Envoi_Message:
	RETURN      0
; end of _Envoi_Message

_Pause_3S:

;GSM_LPJJ.c,378 :: 		void Pause_3S()
;GSM_LPJJ.c,380 :: 		Delay_ms(3000);
	MOVLW       122
	MOVWF       R11, 0
	MOVLW       193
	MOVWF       R12, 0
	MOVLW       129
	MOVWF       R13, 0
L_Pause_3S70:
	DECFSZ      R13, 1, 1
	BRA         L_Pause_3S70
	DECFSZ      R12, 1, 1
	BRA         L_Pause_3S70
	DECFSZ      R11, 1, 1
	BRA         L_Pause_3S70
	NOP
	NOP
;GSM_LPJJ.c,381 :: 		}
L_end_Pause_3S:
	RETURN      0
; end of _Pause_3S

_main:

;GSM_LPJJ.c,393 :: 		void main()
;GSM_LPJJ.c,397 :: 		ANSELA=0;
	CLRF        ANSELA+0 
;GSM_LPJJ.c,398 :: 		ANSELB=0;
	CLRF        ANSELB+0 
;GSM_LPJJ.c,399 :: 		ANSELC=0;
	CLRF        ANSELC+0 
;GSM_LPJJ.c,400 :: 		ANSELD=0;
	CLRF        ANSELD+0 
;GSM_LPJJ.c,401 :: 		ANSELE=0;
	CLRF        ANSELE+0 
;GSM_LPJJ.c,403 :: 		SLRCON=0; //------------------------------------------------------------------Output slew rate sur tous les ports en standard
	CLRF        SLRCON+0 
;GSM_LPJJ.c,407 :: 		A_4052_direction=0; //--------------------------------------------------------Port en sortie
	BCF         TRISC0_bit+0, BitPos(TRISC0_bit+0) 
;GSM_LPJJ.c,408 :: 		B_4052_direction=0;
	BCF         TRISC1_bit+0, BitPos(TRISC1_bit+0) 
;GSM_LPJJ.c,412 :: 		A_4052=0;
	BCF         LATC0_bit+0, BitPos(LATC0_bit+0) 
;GSM_LPJJ.c,413 :: 		B_4052=0;
	BCF         LATC1_bit+0, BitPos(LATC1_bit+0) 
;GSM_LPJJ.c,417 :: 		BP1_direction=1; //-----------------------------------------------------------BP  mis en entrée
	BSF         TRISA4_bit+0, BitPos(TRISA4_bit+0) 
;GSM_LPJJ.c,421 :: 		led_Direction=0;
	BCF         TRISD0_bit+0, BitPos(TRISD0_bit+0) 
;GSM_LPJJ.c,422 :: 		led=1;
	BSF         LATD0_bit+0, BitPos(LATD0_bit+0) 
;GSM_LPJJ.c,426 :: 		UART1_Init(9600);
	BSF         BAUDCON+0, 3, 0
	MOVLW       3
	MOVWF       SPBRGH+0 
	MOVLW       64
	MOVWF       SPBRG+0 
	BSF         TXSTA+0, 2, 0
	CALL        _UART1_Init+0, 0
;GSM_LPJJ.c,427 :: 		Delay_ms(300);
	MOVLW       13
	MOVWF       R11, 0
	MOVLW       45
	MOVWF       R12, 0
	MOVLW       215
	MOVWF       R13, 0
L_main71:
	DECFSZ      R13, 1, 1
	BRA         L_main71
	DECFSZ      R12, 1, 1
	BRA         L_main71
	DECFSZ      R11, 1, 1
	BRA         L_main71
	NOP
	NOP
;GSM_LPJJ.c,431 :: 		RCIE_bit = 1; //--------------------------------------------------------------Interruption réception sur UART seront valides si GIE=1
	BSF         RCIE_bit+0, BitPos(RCIE_bit+0) 
;GSM_LPJJ.c,432 :: 		PEIE_bit = 1; //--------------------------------------------------------------Interruption périphérique valide seront valide si GIE=1
	BSF         PEIE_bit+0, BitPos(PEIE_bit+0) 
;GSM_LPJJ.c,433 :: 		GIE_bit = 1; //---------------------------------------------------------------Interruption GIE valide
	BSF         GIE_bit+0, BitPos(GIE_bit+0) 
;GSM_LPJJ.c,435 :: 		GSM_ON_OFF_Direction = 0;
	BCF         TRISE1_bit+0, BitPos(TRISE1_bit+0) 
;GSM_LPJJ.c,436 :: 		GSM_ON_OFF =0 ;
	BCF         LATE1_bit+0, BitPos(LATE1_bit+0) 
;GSM_LPJJ.c,438 :: 		RTS_Direction = 0; //---------------------------------------------------------RTS bloqué
	BCF         TRISE0_bit+0, BitPos(TRISE0_bit+0) 
;GSM_LPJJ.c,439 :: 		RTS = 0;
	BCF         LATE0_bit+0, BitPos(LATE0_bit+0) 
;GSM_LPJJ.c,443 :: 		Lcd_Init();
	CALL        _Lcd_Init+0, 0
;GSM_LPJJ.c,444 :: 		Lcd_Cmd(_LCD_CLEAR);
	MOVLW       1
	MOVWF       FARG_Lcd_Cmd_out_char+0 
	CALL        _Lcd_Cmd+0, 0
;GSM_LPJJ.c,445 :: 		Lcd_Cmd(_LCD_CURSOR_OFF);
	MOVLW       12
	MOVWF       FARG_Lcd_Cmd_out_char+0 
	CALL        _Lcd_Cmd+0, 0
;GSM_LPJJ.c,447 :: 		strcpy(txtL1_lcd, "Init GSM");
	MOVLW       _txtL1_lcd+0
	MOVWF       FARG_strcpy_to+0 
	MOVLW       hi_addr(_txtL1_lcd+0)
	MOVWF       FARG_strcpy_to+1 
	MOVLW       ?lstr11_GSM_LPJJ+0
	MOVWF       FARG_strcpy_from+0 
	MOVLW       hi_addr(?lstr11_GSM_LPJJ+0)
	MOVWF       FARG_strcpy_from+1 
	CALL        _strcpy+0, 0
;GSM_LPJJ.c,448 :: 		strcpy(txtL2_lcd, "*");
	MOVLW       _txtL2_lcd+0
	MOVWF       FARG_strcpy_to+0 
	MOVLW       hi_addr(_txtL2_lcd+0)
	MOVWF       FARG_strcpy_to+1 
	MOVLW       ?lstr12_GSM_LPJJ+0
	MOVWF       FARG_strcpy_from+0 
	MOVLW       hi_addr(?lstr12_GSM_LPJJ+0)
	MOVWF       FARG_strcpy_from+1 
	CALL        _strcpy+0, 0
;GSM_LPJJ.c,449 :: 		Afficher();
	CALL        _Afficher+0, 0
;GSM_LPJJ.c,451 :: 		GSM_ON_OFF =1 ; //------------------------------------------------------------Forcer un reset sur le module GSM
	BSF         LATE1_bit+0, BitPos(LATE1_bit+0) 
;GSM_LPJJ.c,452 :: 		Delay_ms(2500); //------------------------------------------------------------Attente
	MOVLW       102
	MOVWF       R11, 0
	MOVLW       118
	MOVWF       R12, 0
	MOVLW       193
	MOVWF       R13, 0
L_main72:
	DECFSZ      R13, 1, 1
	BRA         L_main72
	DECFSZ      R12, 1, 1
	BRA         L_main72
	DECFSZ      R11, 1, 1
	BRA         L_main72
;GSM_LPJJ.c,453 :: 		GSM_ON_OFF =0 ; //------------------------------------------------------------GSM on
	BCF         LATE1_bit+0, BitPos(LATE1_bit+0) 
;GSM_LPJJ.c,454 :: 		Pause_3s(); //----------------------------------------------------------------Attente 3s que le module gsm trouve le réseau
	CALL        _Pause_3S+0, 0
;GSM_LPJJ.c,455 :: 		led=0;
	BCF         LATD0_bit+0, BitPos(LATD0_bit+0) 
;GSM_LPJJ.c,459 :: 		strcpy (AT_cmd,AT);
	MOVLW       _AT_cmd+0
	MOVWF       FARG_strcpy_to+0 
	MOVLW       hi_addr(_AT_cmd+0)
	MOVWF       FARG_strcpy_to+1 
	MOVLW       ?lstr13_GSM_LPJJ+0
	MOVWF       FARG_strcpy_from+0 
	MOVLW       hi_addr(?lstr13_GSM_LPJJ+0)
	MOVWF       FARG_strcpy_from+1 
	CALL        _strcpy+0, 0
;GSM_LPJJ.c,460 :: 		while(GSM_Reponse() != GSM_OK) //---------------------------------------------Attente d'une réponse OK Cr Lf
L_main73:
	CALL        _GSM_Reponse+0, 0
	MOVLW       0
	BTFSC       R0, 7 
	MOVLW       255
	XORLW       0
	BTFSS       STATUS+0, 2 
	GOTO        L__main107
	MOVLW       0
	XORWF       R0, 0 
L__main107:
	BTFSC       STATUS+0, 2 
	GOTO        L_main74
;GSM_LPJJ.c,462 :: 		OERR1_bit=0;
	BCF         OERR1_bit+0, BitPos(OERR1_bit+0) 
;GSM_LPJJ.c,463 :: 		FERR1_bit=0;
	BCF         FERR1_bit+0, BitPos(FERR1_bit+0) 
;GSM_LPJJ.c,464 :: 		GSM_EnvoiCmd_AT (AT_cmd); //-----------------------------------------------à l'envoi de AT Cr
	MOVLW       _AT_cmd+0
	MOVWF       FARG_GSM_EnvoiCmd_AT_s+0 
	MOVLW       hi_addr(_AT_cmd+0)
	MOVWF       FARG_GSM_EnvoiCmd_AT_s+1 
	CALL        _GSM_EnvoiCmd_AT+0, 0
;GSM_LPJJ.c,465 :: 		Delay_ms(100); //----------------------------------------------------------attente de 100ms pour la réponse
	MOVLW       5
	MOVWF       R11, 0
	MOVLW       15
	MOVWF       R12, 0
	MOVLW       241
	MOVWF       R13, 0
L_main75:
	DECFSZ      R13, 1, 1
	BRA         L_main75
	DECFSZ      R12, 1, 1
	BRA         L_main75
	DECFSZ      R11, 1, 1
	BRA         L_main75
;GSM_LPJJ.c,466 :: 		}
	GOTO        L_main73
L_main74:
;GSM_LPJJ.c,468 :: 		strcpy (AT_cmd,AT_ECHO_OFF);
	MOVLW       _AT_cmd+0
	MOVWF       FARG_strcpy_to+0 
	MOVLW       hi_addr(_AT_cmd+0)
	MOVWF       FARG_strcpy_to+1 
	MOVLW       ?lstr14_GSM_LPJJ+0
	MOVWF       FARG_strcpy_from+0 
	MOVLW       hi_addr(?lstr14_GSM_LPJJ+0)
	MOVWF       FARG_strcpy_from+1 
	CALL        _strcpy+0, 0
;GSM_LPJJ.c,469 :: 		GSM_EnvoiCmd_AT (AT_cmd); //--------------------------------------------------Pas d'écho aux commandes envoyés au gsm
	MOVLW       _AT_cmd+0
	MOVWF       FARG_GSM_EnvoiCmd_AT_s+0 
	MOVLW       hi_addr(_AT_cmd+0)
	MOVWF       FARG_GSM_EnvoiCmd_AT_s+1 
	CALL        _GSM_EnvoiCmd_AT+0, 0
;GSM_LPJJ.c,470 :: 		GSM_Attente_reponse(GSM_OK); //-----------------------------------------------Attente d'un "OKCrLf"
	CLRF        FARG_GSM_Attente_reponse_type_reponse+0 
	CALL        _GSM_Attente_reponse+0, 0
;GSM_LPJJ.c,472 :: 		strcpy (AT_cmd,AT_MODE_TEXTE);
	MOVLW       _AT_cmd+0
	MOVWF       FARG_strcpy_to+0 
	MOVLW       hi_addr(_AT_cmd+0)
	MOVWF       FARG_strcpy_to+1 
	MOVLW       ?lstr15_GSM_LPJJ+0
	MOVWF       FARG_strcpy_from+0 
	MOVLW       hi_addr(?lstr15_GSM_LPJJ+0)
	MOVWF       FARG_strcpy_from+1 
	CALL        _strcpy+0, 0
;GSM_LPJJ.c,473 :: 		GSM_EnvoiCmd_AT (AT_cmd); //--------------------------------------------------GSM en mode texte
	MOVLW       _AT_cmd+0
	MOVWF       FARG_GSM_EnvoiCmd_AT_s+0 
	MOVLW       hi_addr(_AT_cmd+0)
	MOVWF       FARG_GSM_EnvoiCmd_AT_s+1 
	CALL        _GSM_EnvoiCmd_AT+0, 0
;GSM_LPJJ.c,474 :: 		GSM_Attente_reponse(GSM_OK); //-----------------------------------------------Attente d'un "OKCrLf"
	CLRF        FARG_GSM_Attente_reponse_type_reponse+0 
	CALL        _GSM_Attente_reponse+0, 0
;GSM_LPJJ.c,478 :: 		strcpy (AT_cmd,AT_EFFACEMENT_MESSAGE);
	MOVLW       _AT_cmd+0
	MOVWF       FARG_strcpy_to+0 
	MOVLW       hi_addr(_AT_cmd+0)
	MOVWF       FARG_strcpy_to+1 
	MOVLW       ?lstr16_GSM_LPJJ+0
	MOVWF       FARG_strcpy_from+0 
	MOVLW       hi_addr(?lstr16_GSM_LPJJ+0)
	MOVWF       FARG_strcpy_from+1 
	CALL        _strcpy+0, 0
;GSM_LPJJ.c,479 :: 		while(GSM_Reponse() != GSM_OK) //---------------------------------------------Attente d'une réponse OK Cr Lf
L_main76:
	CALL        _GSM_Reponse+0, 0
	MOVLW       0
	BTFSC       R0, 7 
	MOVLW       255
	XORLW       0
	BTFSS       STATUS+0, 2 
	GOTO        L__main108
	MOVLW       0
	XORWF       R0, 0 
L__main108:
	BTFSC       STATUS+0, 2 
	GOTO        L_main77
;GSM_LPJJ.c,481 :: 		GSM_EnvoiCmd_AT (AT_cmd); //-----------------------------------------------à la demande d'effacement des messages
	MOVLW       _AT_cmd+0
	MOVWF       FARG_GSM_EnvoiCmd_AT_s+0 
	MOVLW       hi_addr(_AT_cmd+0)
	MOVWF       FARG_GSM_EnvoiCmd_AT_s+1 
	CALL        _GSM_EnvoiCmd_AT+0, 0
;GSM_LPJJ.c,482 :: 		Delay_ms(500); //----------------------------------------------------------attente de 500ms pour la réponse
	MOVLW       21
	MOVWF       R11, 0
	MOVLW       75
	MOVWF       R12, 0
	MOVLW       190
	MOVWF       R13, 0
L_main78:
	DECFSZ      R13, 1, 1
	BRA         L_main78
	DECFSZ      R12, 1, 1
	BRA         L_main78
	DECFSZ      R11, 1, 1
	BRA         L_main78
	NOP
;GSM_LPJJ.c,483 :: 		}
	GOTO        L_main76
L_main77:
;GSM_LPJJ.c,485 :: 		strcpy(txtL1_lcd, "Initialisation");
	MOVLW       _txtL1_lcd+0
	MOVWF       FARG_strcpy_to+0 
	MOVLW       hi_addr(_txtL1_lcd+0)
	MOVWF       FARG_strcpy_to+1 
	MOVLW       ?lstr17_GSM_LPJJ+0
	MOVWF       FARG_strcpy_from+0 
	MOVLW       hi_addr(?lstr17_GSM_LPJJ+0)
	MOVWF       FARG_strcpy_from+1 
	CALL        _strcpy+0, 0
;GSM_LPJJ.c,486 :: 		strcpy(txtL2_lcd, "GSM termine");
	MOVLW       _txtL2_lcd+0
	MOVWF       FARG_strcpy_to+0 
	MOVLW       hi_addr(_txtL2_lcd+0)
	MOVWF       FARG_strcpy_to+1 
	MOVLW       ?lstr18_GSM_LPJJ+0
	MOVWF       FARG_strcpy_from+0 
	MOVLW       hi_addr(?lstr18_GSM_LPJJ+0)
	MOVWF       FARG_strcpy_from+1 
	CALL        _strcpy+0, 0
;GSM_LPJJ.c,488 :: 		Afficher();
	CALL        _Afficher+0, 0
;GSM_LPJJ.c,492 :: 		while(1)
L_main79:
;GSM_LPJJ.c,494 :: 		if (k==500) //-------------------------------------------------------------On verifie un message toutes les 5,2s
	MOVF        _k+1, 0 
	XORLW       1
	BTFSS       STATUS+0, 2 
	GOTO        L__main109
	MOVLW       244
	XORWF       _k+0, 0 
L__main109:
	BTFSS       STATUS+0, 2 
	GOTO        L_main81
;GSM_LPJJ.c,504 :: 		strcpy (AT_cmd,AT_STATUS_MESSAGE);
	MOVLW       _AT_cmd+0
	MOVWF       FARG_strcpy_to+0 
	MOVLW       hi_addr(_AT_cmd+0)
	MOVWF       FARG_strcpy_to+1 
	MOVLW       ?lstr19_GSM_LPJJ+0
	MOVWF       FARG_strcpy_from+0 
	MOVLW       hi_addr(?lstr19_GSM_LPJJ+0)
	MOVWF       FARG_strcpy_from+1 
	CALL        _strcpy+0, 0
;GSM_LPJJ.c,505 :: 		GSM_EnvoiCmd_AT (AT_cmd); //------------------------------------------Permet de chercher les messages non lu UNREAD
	MOVLW       _AT_cmd+0
	MOVWF       FARG_GSM_EnvoiCmd_AT_s+0 
	MOVLW       hi_addr(_AT_cmd+0)
	MOVWF       FARG_GSM_EnvoiCmd_AT_s+1 
	CALL        _GSM_EnvoiCmd_AT+0, 0
;GSM_LPJJ.c,506 :: 		Delay_ms(200); //-----------------------------------------------------Attente lecture message s'il y en a
	MOVLW       9
	MOVWF       R11, 0
	MOVLW       30
	MOVWF       R12, 0
	MOVLW       228
	MOVWF       R13, 0
L_main82:
	DECFSZ      R13, 1, 1
	BRA         L_main82
	DECFSZ      R12, 1, 1
	BRA         L_main82
	DECFSZ      R11, 1, 1
	BRA         L_main82
	NOP
;GSM_LPJJ.c,507 :: 		k=0;
	CLRF        _k+0 
	CLRF        _k+1 
;GSM_LPJJ.c,508 :: 		} //--------------------------------------------------------------------500x10ms +200ms=5,2s
L_main81:
;GSM_LPJJ.c,510 :: 		k++;
	INFSNZ      _k+0, 1 
	INCF        _k+1, 1 
;GSM_LPJJ.c,511 :: 		Delay_ms(10); //-----------------------------------------------------------10ms de la boucle 500 on neglige le temps instruction
	MOVLW       104
	MOVWF       R12, 0
	MOVLW       228
	MOVWF       R13, 0
L_main83:
	DECFSZ      R13, 1, 1
	BRA         L_main83
	DECFSZ      R12, 1, 1
	BRA         L_main83
	NOP
;GSM_LPJJ.c,513 :: 		if(Message_complet) //-----------------------------------------------------Si message complet entre @ arrivé
	MOVF        _Message_complet+0, 1 
	BTFSC       STATUS+0, 2 
	GOTO        L_main84
;GSM_LPJJ.c,515 :: 		Message_complet=0; //-----------------------------------------------Alors : effacé le signalement
	CLRF        _Message_complet+0 
;GSM_LPJJ.c,518 :: 		strcpy(txtL1_lcd, phone_nb_entrant); //-----------------------------Affiché le numéro de telephone du sms arrivé
	MOVLW       _txtL1_lcd+0
	MOVWF       FARG_strcpy_to+0 
	MOVLW       hi_addr(_txtL1_lcd+0)
	MOVWF       FARG_strcpy_to+1 
	MOVLW       _phone_nb_entrant+0
	MOVWF       FARG_strcpy_from+0 
	MOVLW       hi_addr(_phone_nb_entrant+0)
	MOVWF       FARG_strcpy_from+1 
	CALL        _strcpy+0, 0
;GSM_LPJJ.c,519 :: 		strcpy(txtL2_lcd, sms_rcpt_message); //-----------------------------Affiché le sms entre deux @
	MOVLW       _txtL2_lcd+0
	MOVWF       FARG_strcpy_to+0 
	MOVLW       hi_addr(_txtL2_lcd+0)
	MOVWF       FARG_strcpy_to+1 
	MOVLW       _sms_rcpt_message+0
	MOVWF       FARG_strcpy_from+0 
	MOVLW       hi_addr(_sms_rcpt_message+0)
	MOVWF       FARG_strcpy_from+1 
	CALL        _strcpy+0, 0
;GSM_LPJJ.c,520 :: 		Afficher();
	CALL        _Afficher+0, 0
;GSM_LPJJ.c,521 :: 		Delay_ms(20); //----------------------------------------------------Attendre 20ms avant effacer message
	MOVLW       208
	MOVWF       R12, 0
	MOVLW       201
	MOVWF       R13, 0
L_main85:
	DECFSZ      R13, 1, 1
	BRA         L_main85
	DECFSZ      R12, 1, 1
	BRA         L_main85
	NOP
	NOP
;GSM_LPJJ.c,524 :: 		strcpy (AT_cmd,AT_EFFACEMENT_MESSAGE);
	MOVLW       _AT_cmd+0
	MOVWF       FARG_strcpy_to+0 
	MOVLW       hi_addr(_AT_cmd+0)
	MOVWF       FARG_strcpy_to+1 
	MOVLW       ?lstr20_GSM_LPJJ+0
	MOVWF       FARG_strcpy_from+0 
	MOVLW       hi_addr(?lstr20_GSM_LPJJ+0)
	MOVWF       FARG_strcpy_from+1 
	CALL        _strcpy+0, 0
;GSM_LPJJ.c,525 :: 		while(GSM_Reponse() != GSM_OK) //-----------------------------------Attente d'une réponse OK Cr Lf
L_main86:
	CALL        _GSM_Reponse+0, 0
	MOVLW       0
	BTFSC       R0, 7 
	MOVLW       255
	XORLW       0
	BTFSS       STATUS+0, 2 
	GOTO        L__main110
	MOVLW       0
	XORWF       R0, 0 
L__main110:
	BTFSC       STATUS+0, 2 
	GOTO        L_main87
;GSM_LPJJ.c,527 :: 		GSM_EnvoiCmd_AT (AT_cmd); //------------------------------------à la demande d'effacement des messages
	MOVLW       _AT_cmd+0
	MOVWF       FARG_GSM_EnvoiCmd_AT_s+0 
	MOVLW       hi_addr(_AT_cmd+0)
	MOVWF       FARG_GSM_EnvoiCmd_AT_s+1 
	CALL        _GSM_EnvoiCmd_AT+0, 0
;GSM_LPJJ.c,528 :: 		Delay_ms(500); //-----------------------------------------------attente de 500ms pour la réponse
	MOVLW       21
	MOVWF       R11, 0
	MOVLW       75
	MOVWF       R12, 0
	MOVLW       190
	MOVWF       R13, 0
L_main88:
	DECFSZ      R13, 1, 1
	BRA         L_main88
	DECFSZ      R12, 1, 1
	BRA         L_main88
	DECFSZ      R11, 1, 1
	BRA         L_main88
	NOP
;GSM_LPJJ.c,529 :: 		}
	GOTO        L_main86
L_main87:
;GSM_LPJJ.c,530 :: 		}
L_main84:
;GSM_LPJJ.c,532 :: 		if ((BP1==0) && (Envoi_En_Cours==0))
	BTFSC       RA4_bit+0, BitPos(RA4_bit+0) 
	GOTO        L_main91
	MOVF        _Envoi_En_Cours+0, 0 
	XORLW       0
	BTFSS       STATUS+0, 2 
	GOTO        L_main91
L__main94:
;GSM_LPJJ.c,534 :: 		Envoi_En_Cours=1; //--------------------------------------------------Signaler un envoi en cours
	MOVLW       1
	MOVWF       _Envoi_En_Cours+0 
;GSM_LPJJ.c,535 :: 		Envoi_Message(2); //--------------------------------------------------Envoyer le message
	MOVLW       2
	MOVWF       FARG_Envoi_Message_Message_Nb+0 
	CALL        _Envoi_Message+0, 0
;GSM_LPJJ.c,536 :: 		}
L_main91:
;GSM_LPJJ.c,537 :: 		}
	GOTO        L_main79
;GSM_LPJJ.c,538 :: 		}
L_end_main:
	GOTO        $+0
; end of _main
